; Function Attrs: nounwind uwtable
define internal fastcc noalias noundef ptr @dtls1_hm_fragment_new(i64 noundef range(i64 -2147483648, 4294967296) %0, i32 noundef range(i32 0, 2) %1) unnamed_addr #2 {
  %calloc27 = tail call dereferenceable_or_null(48) ptr @calloc(i64 1, i64 48)
  %3 = icmp eq ptr %calloc27, null
  br i1 %3, label %4, label %5

4:                                                ; preds = %2
  tail call void @ERR_put_error(i32 noundef 16, i32 noundef 0, i32 noundef 65, ptr noundef nonnull @.str, i32 noundef 149) #13
  br label %.thread

5:                                                ; preds = %2
  %.not = icmp eq i64 %0, 0
  br i1 %.not, label %.thread, label %6

6:                                                ; preds = %5
  %7 = tail call noalias ptr @malloc(i64 noundef %0) #14
  %8 = getelementptr inbounds nuw i8, ptr %calloc27, i64 32
  store ptr %7, ptr %8, align 8, !tbaa !6
  %9 = icmp eq ptr %7, null
  br i1 %9, label %10, label %11

10:                                               ; preds = %6
  tail call void @ERR_put_error(i32 noundef 16, i32 noundef 0, i32 noundef 65, ptr noundef nonnull @.str, i32 noundef 159) #13
  br label %dtls1_hm_fragment_free.exit

11:                                               ; preds = %6
  %.not23 = icmp eq i32 %1, 0
  br i1 %.not23, label %.thread, label %12

12:                                               ; preds = %11
  %13 = icmp ugt i64 %0, -8
  br i1 %13, label %14, label %15

14:                                               ; preds = %12
  tail call void @ERR_put_error(i32 noundef 16, i32 noundef 0, i32 noundef 69, ptr noundef nonnull @.str, i32 noundef 166) #13
  br label %dtls1_hm_fragment_free.exit

15:                                               ; preds = %12
  %16 = add nsw i64 %0, 7
  %17 = lshr i64 %16, 3
  %calloc = tail call ptr @calloc(i64 1, i64 %17)
  %18 = getelementptr inbounds nuw i8, ptr %calloc27, i64 40
  store ptr %calloc, ptr %18, align 8, !tbaa !15
  %19 = icmp eq ptr %calloc, null
  br i1 %19, label %20, label %.thread

20:                                               ; preds = %15
  tail call void @ERR_put_error(i32 noundef 16, i32 noundef 0, i32 noundef 65, ptr noundef nonnull @.str, i32 noundef 172) #13
  br label %dtls1_hm_fragment_free.exit

dtls1_hm_fragment_free.exit:                      ; preds = %20, %14, %10
  tail call void @free(ptr noundef %7) #13
  tail call void @free(ptr noundef nonnull %calloc27) #13
  br label %.thread

.thread:                                          ; preds = %15, %5, %11, %dtls1_hm_fragment_free.exit, %4
  %.0 = phi ptr [ null, %4 ], [ null, %dtls1_hm_fragment_free.exit ], [ %calloc27, %11 ], [ %calloc27, %5 ], [ %calloc27, %15 ]
  ret ptr %.0
}